; Function Attrs: nofree norecurse nosync nounwind memory(argmem: readwrite) uwtable
define hidden void @aom_dc_predictor_8x8_c(ptr nocapture noundef writeonly %0, i64 noundef %1, ptr nocapture noundef readonly %2, ptr nocapture noundef readonly %3) local_unnamed_addr #0 {
  br label %.lr.ph.i

.lr.ph.i:                                         ; preds = %.lr.ph.i, %4
  %indvars.iv.i = phi i64 [ 0, %4 ], [ %indvars.iv.next.i, %.lr.ph.i ]
  %.02431.i = phi i32 [ 0, %4 ], [ %8, %.lr.ph.i ]
  %5 = getelementptr inbounds i8, ptr %2, i64 %indvars.iv.i
  %6 = load i8, ptr %5, align 1
  %7 = zext i8 %6 to i32
  %8 = add nuw nsw i32 %.02431.i, %7
  %indvars.iv.next.i = add nuw nsw i64 %indvars.iv.i, 1
  %exitcond.not.i = icmp eq i64 %indvars.iv.next.i, 8
  br i1 %exitcond.not.i, label %.lr.ph34.i, label %.lr.ph.i, !llvm.loop !47

.lr.ph34.i:                                       ; preds = %.lr.ph.i, %.lr.ph34.i
  %indvars.iv43.i = phi i64 [ %indvars.iv.next44.i, %.lr.ph34.i ], [ 0, %.lr.ph.i ]
  %.133.i = phi i32 [ %12, %.lr.ph34.i ], [ %8, %.lr.ph.i ]
  %9 = getelementptr inbounds i8, ptr %3, i64 %indvars.iv43.i
  %10 = load i8, ptr %9, align 1
  %11 = zext i8 %10 to i32
  %12 = add nuw nsw i32 %.133.i, %11
  %indvars.iv.next44.i = add nuw nsw i64 %indvars.iv43.i, 1
  %exitcond47.not.i = icmp eq i64 %indvars.iv.next44.i, 8
  br i1 %exitcond47.not.i, label %._crit_edge.i, label %.lr.ph34.i, !llvm.loop !48

._crit_edge.i:                                    ; preds = %.lr.ph34.i
  %13 = add nuw nsw i32 %12, 8
  %14 = lshr i32 %13, 4
  %15 = trunc i32 %14 to i8
  br label %16

16:                                               ; preds = %16, %._crit_edge.i
  %.037.i = phi ptr [ %0, %._crit_edge.i ], [ %17, %16 ]
  %.02736.i = phi i32 [ 0, %._crit_edge.i ], [ %18, %16 ]
  tail call void @llvm.memset.p0.i64(ptr noundef nonnull align 1 dereferenceable(8) %.037.i, i8 %15, i64 8, i1 false)
  %17 = getelementptr inbounds i8, ptr %.037.i, i64 %1
  %18 = add nuw nsw i32 %.02736.i, 1
  %exitcond48.not.i = icmp eq i32 %18, 8
  br i1 %exitcond48.not.i, label %dc_predictor.exit, label %16, !llvm.loop !49

dc_predictor.exit:                                ; preds = %16
  ret void
}